; Function Attrs: mustprogress uwtable
define noundef nonnull align 8 dereferenceable(8) ptr @_ZN5arrowlsERSoRKNS_10Decimal128E(ptr noundef nonnull returned align 8 dereferenceable(8) %os, ptr nocapture noundef nonnull readonly align 8 dereferenceable(16) %decimal) local_unnamed_addr #0 personality ptr @__gxx_personality_v0 {
entry:
  %abs.i = alloca %"class.arrow::Decimal128", align 16
  %ref.tmp.i = alloca %"struct.std::array", align 16
  %ref.tmp10.i = alloca %"struct.std::array", align 8
  %ref.tmp = alloca %"class.std::__cxx11::basic_string", align 8
  call void @llvm.lifetime.start.p0(i64 16, ptr nonnull %abs.i)
  call void @llvm.lifetime.start.p0(i64 16, ptr nonnull %ref.tmp.i)
  call void @llvm.lifetime.start.p0(i64 16, ptr nonnull %ref.tmp10.i)
  call void @_ZNSt7__cxx1112basic_stringIcSt11char_traitsIcESaIcEEC1Ev(ptr noundef nonnull align 8 dereferenceable(32) %ref.tmp) #18
  %arrayidx.i.i.i.i = getelementptr inbounds i8, ptr %decimal, i64 8
  %0 = load i64, ptr %arrayidx.i.i.i.i, align 8, !noalias !68
  %cmp.i = icmp slt i64 %0, 0
  br i1 %cmp.i, label %if.then.i, label %if.else.i

if.then.i:                                        ; preds = %entry
  invoke void @_ZNSt7__cxx1112basic_stringIcSt11char_traitsIcESaIcEE9push_backEc(ptr noundef nonnull align 8 dereferenceable(32) %ref.tmp, i8 noundef signext 45)
          to label %invoke.cont2.i unwind label %lpad.i

invoke.cont2.i:                                   ; preds = %if.then.i
  call void @llvm.memcpy.p0.p0.i64(ptr noundef nonnull align 16 dereferenceable(16) %abs.i, ptr noundef nonnull align 8 dereferenceable(16) %decimal, i64 16, i1 false), !noalias !68
  %call4.i = invoke noundef nonnull align 8 dereferenceable(16) ptr @_ZN5arrow15BasicDecimal1286NegateEv(ptr noundef nonnull align 8 dereferenceable(16) %abs.i)
          to label %invoke.cont3.i unwind label %lpad.i

invoke.cont3.i:                                   ; preds = %invoke.cont2.i
  %1 = load <2 x i64>, ptr %abs.i, align 16, !noalias !68
  store <2 x i64> %1, ptr %ref.tmp.i, align 16, !noalias !68
  br label %if.else.invoke.i

common.resume:                                    ; preds = %lpad, %lpad.i
  %common.resume.op = phi { ptr, i32 } [ %2, %lpad.i ], [ %5, %lpad ]
  call void @_ZNSt7__cxx1112basic_stringIcSt11char_traitsIcESaIcEED1Ev(ptr noundef nonnull align 8 dereferenceable(32) %ref.tmp) #18
  resume { ptr, i32 } %common.resume.op

lpad.i:                                           ; preds = %if.else.invoke.i, %invoke.cont2.i, %if.then.i
  %2 = landingpad { ptr, i32 }
          cleanup
  br label %common.resume

if.else.i:                                        ; preds = %entry
  %3 = load i64, ptr %decimal, align 8, !noalias !68
  store i64 %3, ptr %ref.tmp10.i, align 8, !noalias !68
  %arrayinit.element15.i = getelementptr inbounds i8, ptr %ref.tmp10.i, i64 8
  store i64 %0, ptr %arrayinit.element15.i, align 8, !noalias !68
  br label %if.else.invoke.i

if.else.invoke.i:                                 ; preds = %if.else.i, %invoke.cont3.i
  %4 = phi ptr [ %ref.tmp10.i, %if.else.i ], [ %ref.tmp.i, %invoke.cont3.i ]
  invoke fastcc void @_ZN5arrowL31AppendLittleEndianArrayToStringILm2EEEvRKSt5arrayImXT_EEPNSt7__cxx1112basic_stringIcSt11char_traitsIcESaIcEEE(ptr noundef nonnull align 8 dereferenceable(16) %4, ptr noundef nonnull %ref.tmp)
          to label %_ZNK5arrow10Decimal12815ToIntegerStringB5cxx11Ev.exit unwind label %lpad.i

_ZNK5arrow10Decimal12815ToIntegerStringB5cxx11Ev.exit: ; preds = %if.else.invoke.i
  call void @llvm.lifetime.end.p0(i64 16, ptr nonnull %abs.i)
  call void @llvm.lifetime.end.p0(i64 16, ptr nonnull %ref.tmp.i)
  call void @llvm.lifetime.end.p0(i64 16, ptr nonnull %ref.tmp10.i)
  %call = invoke noundef nonnull align 8 dereferenceable(8) ptr @_ZStlsIcSt11char_traitsIcESaIcEERSt13basic_ostreamIT_T0_ES7_RKNSt7__cxx1112basic_stringIS4_S5_T1_EE(ptr noundef nonnull align 8 dereferenceable(8) %os, ptr noundef nonnull align 8 dereferenceable(32) %ref.tmp)
          to label %invoke.cont unwind label %lpad

invoke.cont:                                      ; preds = %_ZNK5arrow10Decimal12815ToIntegerStringB5cxx11Ev.exit
  call void @_ZNSt7__cxx1112basic_stringIcSt11char_traitsIcESaIcEED1Ev(ptr noundef nonnull align 8 dereferenceable(32) %ref.tmp) #18
  ret ptr %os

lpad:                                             ; preds = %_ZNK5arrow10Decimal12815ToIntegerStringB5cxx11Ev.exit
  %5 = landingpad { ptr, i32 }
          cleanup
  br label %common.resume
}